target datalayout = "e-m:e-p270:32:32-p271:32:32-p272:64:64-i64:64-i128:128-f80:128-n8:16:32:64-S128"
target triple = "x86_64-pc-linux-gnu"

%struct.nstime_t = type { i64, i32 }

@hf_gryphon_blm_data_time = internal global i32 0, align 4
@hf_gryphon_blm_data_bus_load = internal global i32 0, align 4
@hf_gryphon_blm_data_current_bus_load = internal global i32 0, align 4
@hf_gryphon_blm_data_peak_bus_load = internal global i32 0, align 4
@hf_gryphon_blm_data_historic_peak_bus_load = internal global i32 0, align 4
@.str.1107 = private unnamed_addr constant [10 x i8] c"%d.%02d%%\00", align 1

; Function Attrs: null_pointer_is_valid sspstrong uwtable
define internal i32 @resp_blm_data(ptr noundef %0, i32 noundef %1, ptr noundef %2) #0 {
  %4 = alloca ptr, align 8
  %5 = alloca i32, align 4
  %6 = alloca ptr, align 8
  %7 = alloca i32, align 4
  %8 = alloca %struct.nstime_t, align 8
  store ptr %0, ptr %4, align 8
  store i32 %1, ptr %5, align 4
  store ptr %2, ptr %6, align 8
  call void @llvm.lifetime.start.p0(i64 4, ptr %7) #7
  call void @llvm.lifetime.start.p0(i64 16, ptr %8) #7
  %9 = load ptr, ptr %4, align 8
  %10 = load i32, ptr %5, align 4
  %11 = call i32 @tvb_get_ntohl(ptr noundef %9, i32 noundef %10)
  %12 = udiv i32 %11, 100000
  %13 = zext i32 %12 to i64
  %14 = getelementptr inbounds nuw %struct.nstime_t, ptr %8, i32 0, i32 0
  store i64 %13, ptr %14, align 8
  %15 = load ptr, ptr %4, align 8
  %16 = load i32, ptr %5, align 4
  %17 = call i32 @tvb_get_ntohl(ptr noundef %15, i32 noundef %16)
  %18 = urem i32 %17, 100000
  %19 = mul i32 %18, 1000
  %20 = getelementptr inbounds nuw %struct.nstime_t, ptr %8, i32 0, i32 1
  store i32 %19, ptr %20, align 8
  %21 = load ptr, ptr %6, align 8
  %22 = load i32, ptr @hf_gryphon_blm_data_time, align 4
  %23 = load ptr, ptr %4, align 8
  %24 = load i32, ptr %5, align 4
  %25 = call ptr @proto_tree_add_time(ptr noundef %21, i32 noundef %22, ptr noundef %23, i32 noundef %24, i32 noundef 4, ptr noundef %8)
  %26 = load i32, ptr %5, align 4
  %27 = add i32 %26, 4
  store i32 %27, ptr %5, align 4
  %28 = load ptr, ptr %4, align 8
  %29 = load i32, ptr %5, align 4
  %30 = call zeroext i16 @tvb_get_ntohs(ptr noundef %28, i32 noundef %29)
  %31 = zext i16 %30 to i32
  store i32 %31, ptr %7, align 4
  %32 = load ptr, ptr %6, align 8
  %33 = load i32, ptr @hf_gryphon_blm_data_bus_load, align 4
  %34 = load ptr, ptr %4, align 8
  %35 = load i32, ptr %5, align 4
  %36 = load i32, ptr %7, align 4
  %37 = load i32, ptr %7, align 4
  %38 = sdiv i32 %37, 100
  %39 = load i32, ptr %7, align 4
  %40 = srem i32 %39, 100
  %41 = call ptr (ptr, i32, ptr, i32, i32, i32, ptr, ...) @proto_tree_add_uint_format_value(ptr noundef %32, i32 noundef %33, ptr noundef %34, i32 noundef %35, i32 noundef 2, i32 noundef %36, ptr noundef @.str.1107, i32 noundef %38, i32 noundef %40)
  %42 = load i32, ptr %5, align 4
  %43 = add i32 %42, 2
  store i32 %43, ptr %5, align 4
  %44 = load ptr, ptr %4, align 8
  %45 = load i32, ptr %5, align 4
  %46 = call zeroext i16 @tvb_get_ntohs(ptr noundef %44, i32 noundef %45)
  %47 = zext i16 %46 to i32
  store i32 %47, ptr %7, align 4
  %48 = load ptr, ptr %6, align 8
  %49 = load i32, ptr @hf_gryphon_blm_data_current_bus_load, align 4
  %50 = load ptr, ptr %4, align 8
  %51 = load i32, ptr %5, align 4
  %52 = load i32, ptr %7, align 4
  %53 = load i32, ptr %7, align 4
  %54 = sdiv i32 %53, 100
  %55 = load i32, ptr %7, align 4
  %56 = srem i32 %55, 100
  %57 = call ptr (ptr, i32, ptr, i32, i32, i32, ptr, ...) @proto_tree_add_uint_format_value(ptr noundef %48, i32 noundef %49, ptr noundef %50, i32 noundef %51, i32 noundef 2, i32 noundef %52, ptr noundef @.str.1107, i32 noundef %54, i32 noundef %56)
  %58 = load i32, ptr %5, align 4
  %59 = add i32 %58, 2
  store i32 %59, ptr %5, align 4
  %60 = load ptr, ptr %4, align 8
  %61 = load i32, ptr %5, align 4
  %62 = call zeroext i16 @tvb_get_ntohs(ptr noundef %60, i32 noundef %61)
  %63 = zext i16 %62 to i32
  store i32 %63, ptr %7, align 4
  %64 = load ptr, ptr %6, align 8
  %65 = load i32, ptr @hf_gryphon_blm_data_peak_bus_load, align 4
  %66 = load ptr, ptr %4, align 8
  %67 = load i32, ptr %5, align 4
  %68 = load i32, ptr %7, align 4
  %69 = load i32, ptr %7, align 4
  %70 = sdiv i32 %69, 100
  %71 = load i32, ptr %7, align 4
  %72 = srem i32 %71, 100
  %73 = call ptr (ptr, i32, ptr, i32, i32, i32, ptr, ...) @proto_tree_add_uint_format_value(ptr noundef %64, i32 noundef %65, ptr noundef %66, i32 noundef %67, i32 noundef 2, i32 noundef %68, ptr noundef @.str.1107, i32 noundef %70, i32 noundef %72)
  %74 = load i32, ptr %5, align 4
  %75 = add i32 %74, 2
  store i32 %75, ptr %5, align 4
  %76 = load ptr, ptr %4, align 8
  %77 = load i32, ptr %5, align 4
  %78 = call zeroext i16 @tvb_get_ntohs(ptr noundef %76, i32 noundef %77)
  %79 = zext i16 %78 to i32
  store i32 %79, ptr %7, align 4
  %80 = load ptr, ptr %6, align 8
  %81 = load i32, ptr @hf_gryphon_blm_data_historic_peak_bus_load, align 4
  %82 = load ptr, ptr %4, align 8
  %83 = load i32, ptr %5, align 4
  %84 = load i32, ptr %7, align 4
  %85 = load i32, ptr %7, align 4
  %86 = sdiv i32 %85, 100
  %87 = load i32, ptr %7, align 4
  %88 = srem i32 %87, 100
  %89 = call ptr (ptr, i32, ptr, i32, i32, i32, ptr, ...) @proto_tree_add_uint_format_value(ptr noundef %80, i32 noundef %81, ptr noundef %82, i32 noundef %83, i32 noundef 2, i32 noundef %84, ptr noundef @.str.1107, i32 noundef %86, i32 noundef %88)
  %90 = load i32, ptr %5, align 4
  %91 = add i32 %90, 2
  store i32 %91, ptr %5, align 4
  %92 = load i32, ptr %5, align 4
  call void @llvm.lifetime.end.p0(i64 16, ptr %8) #7
  call void @llvm.lifetime.end.p0(i64 4, ptr %7) #7
  ret i32 %92
}