; Function Attrs: null_pointer_is_valid sspstrong uwtable
define internal fastcc void @resp_blm_data(ptr noundef %0, ptr noundef %1) unnamed_addr #0 {
  %3 = alloca %struct.nstime_t, align 8
  call void @llvm.lifetime.start.p0(i64 16, ptr nonnull %3) #5
  %4 = tail call i32 @tvb_get_ntohl(ptr noundef %0, i32 noundef 16)
  %5 = udiv i32 %4, 100000
  %6 = zext nneg i32 %5 to i64
  store i64 %6, ptr %3, align 8
  %7 = tail call i32 @tvb_get_ntohl(ptr noundef %0, i32 noundef 16)
  %8 = urem i32 %7, 100000
  %9 = mul nuw nsw i32 %8, 1000
  %10 = getelementptr inbounds nuw i8, ptr %3, i64 8
  store i32 %9, ptr %10, align 8
  %11 = load i32, ptr @hf_gryphon_blm_data_time, align 4
  %12 = call ptr @proto_tree_add_time(ptr noundef %1, i32 noundef %11, ptr noundef %0, i32 noundef 16, i32 noundef 4, ptr noundef nonnull %3)
  %13 = call zeroext i16 @tvb_get_ntohs(ptr noundef %0, i32 noundef 20)
  %14 = zext i16 %13 to i32
  %15 = load i32, ptr @hf_gryphon_blm_data_bus_load, align 4
  %16 = udiv i16 %13, 100
  %.zext = zext nneg i16 %16 to i32
  %17 = urem i16 %13, 100
  %.zext45 = zext nneg i16 %17 to i32
  %18 = call ptr (ptr, i32, ptr, i32, i32, i32, ptr, ...) @proto_tree_add_uint_format_value(ptr noundef %1, i32 noundef %15, ptr noundef %0, i32 noundef 20, i32 noundef 2, i32 noundef %14, ptr noundef nonnull @.str.1107, i32 noundef %.zext, i32 noundef %.zext45)
  %19 = call zeroext i16 @tvb_get_ntohs(ptr noundef %0, i32 noundef 22)
  %20 = zext i16 %19 to i32
  %21 = load i32, ptr @hf_gryphon_blm_data_current_bus_load, align 4
  %22 = udiv i16 %19, 100
  %.zext47 = zext nneg i16 %22 to i32
  %23 = urem i16 %19, 100
  %.zext49 = zext nneg i16 %23 to i32
  %24 = call ptr (ptr, i32, ptr, i32, i32, i32, ptr, ...) @proto_tree_add_uint_format_value(ptr noundef %1, i32 noundef %21, ptr noundef %0, i32 noundef 22, i32 noundef 2, i32 noundef %20, ptr noundef nonnull @.str.1107, i32 noundef %.zext47, i32 noundef %.zext49)
  %25 = call zeroext i16 @tvb_get_ntohs(ptr noundef %0, i32 noundef 24)
  %26 = zext i16 %25 to i32
  %27 = load i32, ptr @hf_gryphon_blm_data_peak_bus_load, align 4
  %28 = udiv i16 %25, 100
  %.zext51 = zext nneg i16 %28 to i32
  %29 = urem i16 %25, 100
  %.zext53 = zext nneg i16 %29 to i32
  %30 = call ptr (ptr, i32, ptr, i32, i32, i32, ptr, ...) @proto_tree_add_uint_format_value(ptr noundef %1, i32 noundef %27, ptr noundef %0, i32 noundef 24, i32 noundef 2, i32 noundef %26, ptr noundef nonnull @.str.1107, i32 noundef %.zext51, i32 noundef %.zext53)
  %31 = call zeroext i16 @tvb_get_ntohs(ptr noundef %0, i32 noundef 26)
  %32 = zext i16 %31 to i32
  %33 = load i32, ptr @hf_gryphon_blm_data_historic_peak_bus_load, align 4
  %34 = udiv i16 %31, 100
  %.zext55 = zext nneg i16 %34 to i32
  %35 = urem i16 %31, 100
  %.zext57 = zext nneg i16 %35 to i32
  %36 = call ptr (ptr, i32, ptr, i32, i32, i32, ptr, ...) @proto_tree_add_uint_format_value(ptr noundef %1, i32 noundef %33, ptr noundef %0, i32 noundef 26, i32 noundef 2, i32 noundef %32, ptr noundef nonnull @.str.1107, i32 noundef %.zext55, i32 noundef %.zext57)
  call void @llvm.lifetime.end.p0(i64 16, ptr nonnull %3) #5
  ret void
}